ccopy_reg
_reconstructor
p0
(csklearn.svm.classes
LinearSVC
p1
c__builtin__
object
p2
Ntp3
Rp4
(dp5
S'loss'
p6
S'squared_hinge'
p7
sS'C'
p8
F1.0
sS'classes_'
p9
cnumpy.core.multiarray
_reconstruct
p10
(cnumpy
ndarray
p11
(I0
tp12
S'b'
p13
tp14
Rp15
(I1
(I2
tp16
cnumpy
dtype
p17
(S'u1'
p18
I0
I1
tp19
Rp20
(I3
S'|'
p21
NNNI-1
I-1
I0
tp22
bI00
S'\x00\x01'
p23
tp24
bsS'verbose'
p25
I0
sS'intercept_scaling'
p26
I1
sS'dual'
p27
I01
sS'fit_intercept'
p28
I01
sS'max_iter'
p29
I1000
sS'n_iter_'
p30
cnumpy.core.multiarray
scalar
p31
(g17
(S'i4'
p32
I0
I1
tp33
Rp34
(I3
S'<'
p35
NNNI-1
I-1
I0
tp36
bS'\xb1\x00\x00\x00'
p37
tp38
Rp39
sS'penalty'
p40
S'l2'
p41
sS'multi_class'
p42
S'ovr'
p43
sS'random_state'
p44
NsS'tol'
p45
F0.0001
sS'coef_'
p46
g10
(g11
(I0
tp47
g13
tp48
Rp49
(I1
(I1
I9
tp50
g17
(S'f8'
p51
I0
I1
tp52
Rp53
(I3
S'<'
p54
NNNI-1
I-1
I0
tp55
bI01
S'\xaf,-\'\x1d\xe76@\x12\x7f\xe4\xee\xb7\x00$\xc0\xa0\x1f*\xe2\xd1x\x0e\xc0\xab\xfc5Fk*!\xc0/"\x87\xbf\xb5\xc8\x02\xc0z\xe8\xb8\xd6\x16\x98\xf0\xbf\x18\xdas\xe5@\x00\x15\xc0\xb0k#\x19\xa5\xe0\x1a@\x12XBZ,\xba\x06@'
p56
tp57
bsS'intercept_'
p58
g10
(g11
(I0
tp59
g13
tp60
Rp61
(I1
(I1
tp62
g53
I00
S'\x9a\x80\xbc\xec\x91\xb6\xea\xbf'
p63
tp64
bsS'class_weight'
p65
Nsb.